target datalayout = "e-m:e-p270:32:32-p271:32:32-p272:64:64-i64:64-i128:128-f80:128-n8:16:32:64-S128"
target triple = "x86_64-pc-linux-gnu"

%struct.darktable_t = type { %struct.dt_codepath_t, i32, i32, ptr, ptr, ptr, ptr, ptr, ptr, ptr, ptr, ptr, ptr, ptr, ptr, ptr, ptr, ptr, ptr, ptr, ptr, ptr, ptr, ptr, ptr, ptr, ptr, ptr, ptr, ptr, [64 x %struct.dt_pthread_mutex_t], %struct.dt_pthread_mutex_t, %struct.dt_pthread_mutex_t, %struct.dt_pthread_mutex_t, %struct.dt_pthread_mutex_t, %struct.dt_pthread_mutex_t, ptr, ptr, ptr, ptr, ptr, ptr, ptr, ptr, ptr, ptr, ptr, ptr, ptr, %struct.dt_lua_state_t, ptr, double, ptr, i32, [47 x i32], i32, i32, ptr, ptr, %struct.dt_sys_resources_t, %struct.dt_backthumb_t, %struct.dt_gimp_t }
%struct.dt_codepath_t = type { i8, [3 x i8] }
%struct.dt_pthread_mutex_t = type { %union.pthread_mutex_t }
%union.pthread_mutex_t = type { %struct.__pthread_mutex_s }
%struct.__pthread_mutex_s = type { i32, i32, i32, i32, i32, i16, i16, %struct.__pthread_internal_list }
%struct.__pthread_internal_list = type { ptr, ptr }
%struct.dt_lua_state_t = type { i32 }
%struct.dt_sys_resources_t = type { i64, i64, ptr, ptr, i32 }
%struct.dt_backthumb_t = type { double, double, i32, i32, i32, i32 }
%struct.dt_gimp_t = type { i32, ptr, ptr, i32, i32 }
%struct._GdkRGBA = type { double, double, double, double }
%struct.dt_gui_gtk_t = type { ptr, %struct.dt_gui_widgets_t, %struct.dt_gui_scrollbars_t, i32, ptr, i32, [39 x %struct._GdkRGBA], i32, i32, i32, i32, i32, double, double, double, double, ptr, double, double, double, double, i32, i32, [4096 x i8], i32, i32, i32, %struct.dt_pthread_mutex_t }
%struct.dt_gui_widgets_t = type { ptr, ptr, ptr, ptr, i32, i32, i32 }
%struct.dt_gui_scrollbars_t = type { ptr, ptr, i32 }

@darktable = external global %struct.darktable_t, align 8
@.str.82 = private unnamed_addr constant [25 x i8] c"panels_collapse_controls\00", align 1

; Function Attrs: nounwind uwtable
define internal void @_panels_controls_accel_callback(ptr noundef %0) #0 {
  %2 = alloca ptr, align 8
  %3 = alloca ptr, align 8
  %4 = alloca i32, align 4
  store ptr %0, ptr %2, align 8, !tbaa !131
  call void @llvm.lifetime.start.p0(i64 8, ptr %3) #15
  %5 = call ptr @_panels_get_view_path(ptr noundef @.str.82)
  store ptr %5, ptr %3, align 8, !tbaa !11
  call void @llvm.lifetime.start.p0(i64 4, ptr %4) #15
  store i32 1, ptr %4, align 4, !tbaa !17
  %6 = load ptr, ptr %3, align 8, !tbaa !11
  %7 = call i32 @dt_conf_key_exists(ptr noundef %6)
  %8 = icmp ne i32 %7, 0
  br i1 %8, label %9, label %12

9:                                                ; preds = %1
  %10 = load ptr, ptr %3, align 8, !tbaa !11
  %11 = call i32 @dt_conf_get_bool(ptr noundef %10)
  store i32 %11, ptr %4, align 4, !tbaa !17
  br label %12

12:                                               ; preds = %9, %1
  %13 = load i32, ptr %4, align 4, !tbaa !17
  %14 = icmp ne i32 %13, 0
  %15 = xor i1 %14, true
  %16 = zext i1 %15 to i32
  store i32 %16, ptr %4, align 4, !tbaa !17
  %17 = load ptr, ptr %3, align 8, !tbaa !11
  %18 = load i32, ptr %4, align 4, !tbaa !17
  call void @dt_conf_set_bool(ptr noundef %17, i32 noundef %18)
  %19 = load ptr, ptr %3, align 8, !tbaa !11
  call void @g_free(ptr noundef %19)
  %20 = load ptr, ptr getelementptr inbounds nuw (%struct.darktable_t, ptr @darktable, i32 0, i32 14), align 8, !tbaa !24
  %21 = getelementptr inbounds nuw %struct.dt_gui_gtk_t, ptr %20, i32 0, i32 1
  %22 = getelementptr inbounds nuw %struct.dt_gui_widgets_t, ptr %21, i32 0, i32 1
  %23 = load ptr, ptr %22, align 8, !tbaa !134
  %24 = call i64 @gtk_widget_get_type() #16
  %25 = call ptr @g_type_check_instance_cast(ptr noundef %23, i64 noundef %24)
  %26 = load i32, ptr %4, align 4, !tbaa !17
  call void @gtk_widget_set_visible(ptr noundef %25, i32 noundef %26)
  %27 = load ptr, ptr getelementptr inbounds nuw (%struct.darktable_t, ptr @darktable, i32 0, i32 14), align 8, !tbaa !24
  %28 = getelementptr inbounds nuw %struct.dt_gui_gtk_t, ptr %27, i32 0, i32 1
  %29 = getelementptr inbounds nuw %struct.dt_gui_widgets_t, ptr %28, i32 0, i32 0
  %30 = load ptr, ptr %29, align 8, !tbaa !133
  %31 = call i64 @gtk_widget_get_type() #16
  %32 = call ptr @g_type_check_instance_cast(ptr noundef %30, i64 noundef %31)
  %33 = load i32, ptr %4, align 4, !tbaa !17
  call void @gtk_widget_set_visible(ptr noundef %32, i32 noundef %33)
  %34 = load ptr, ptr getelementptr inbounds nuw (%struct.darktable_t, ptr @darktable, i32 0, i32 14), align 8, !tbaa !24
  %35 = getelementptr inbounds nuw %struct.dt_gui_gtk_t, ptr %34, i32 0, i32 1
  %36 = getelementptr inbounds nuw %struct.dt_gui_widgets_t, ptr %35, i32 0, i32 3
  %37 = load ptr, ptr %36, align 8, !tbaa !135
  %38 = call i64 @gtk_widget_get_type() #16
  %39 = call ptr @g_type_check_instance_cast(ptr noundef %37, i64 noundef %38)
  %40 = load i32, ptr %4, align 4, !tbaa !17
  call void @gtk_widget_set_visible(ptr noundef %39, i32 noundef %40)
  %41 = load ptr, ptr getelementptr inbounds nuw (%struct.darktable_t, ptr @darktable, i32 0, i32 14), align 8, !tbaa !24
  %42 = getelementptr inbounds nuw %struct.dt_gui_gtk_t, ptr %41, i32 0, i32 1
  %43 = getelementptr inbounds nuw %struct.dt_gui_widgets_t, ptr %42, i32 0, i32 2
  %44 = load ptr, ptr %43, align 8, !tbaa !136
  %45 = call i64 @gtk_widget_get_type() #16
  %46 = call ptr @g_type_check_instance_cast(ptr noundef %44, i64 noundef %45)
  %47 = load i32, ptr %4, align 4, !tbaa !17
  call void @gtk_widget_set_visible(ptr noundef %46, i32 noundef %47)
  call void @llvm.lifetime.end.p0(i64 4, ptr %4) #15
  call void @llvm.lifetime.end.p0(i64 8, ptr %3) #15
  ret void
}