; Function Attrs: nounwind uwtable
define internal void @_panels_controls_accel_callback(ptr readnone captures(none) %0) #0 {
  %2 = tail call fastcc ptr @_panels_get_view_path(ptr noundef nonnull @.str.82)
  %3 = tail call i32 @dt_conf_key_exists(ptr noundef %2) #18
  %.not = icmp eq i32 %3, 0
  br i1 %.not, label %8, label %4

4:                                                ; preds = %1
  %5 = tail call i32 @dt_conf_get_bool(ptr noundef %2) #18
  %6 = icmp eq i32 %5, 0
  %7 = zext i1 %6 to i32
  br label %8

8:                                                ; preds = %4, %1
  %.0 = phi i32 [ %7, %4 ], [ 0, %1 ]
  tail call void @dt_conf_set_bool(ptr noundef %2, i32 noundef %.0) #18
  tail call void @g_free(ptr noundef %2) #18
  %9 = load ptr, ptr getelementptr inbounds nuw (i8, ptr @darktable, i64 104), align 8, !tbaa !15
  %10 = getelementptr inbounds nuw i8, ptr %9, i64 16
  %11 = load ptr, ptr %10, align 8, !tbaa !110
  %12 = tail call i64 @gtk_widget_get_type() #19
  %13 = tail call ptr @g_type_check_instance_cast(ptr noundef %11, i64 noundef %12) #18
  tail call void @gtk_widget_set_visible(ptr noundef %13, i32 noundef %.0) #18
  %14 = load ptr, ptr getelementptr inbounds nuw (i8, ptr @darktable, i64 104), align 8, !tbaa !15
  %15 = getelementptr inbounds nuw i8, ptr %14, i64 8
  %16 = load ptr, ptr %15, align 8, !tbaa !109
  %17 = tail call ptr @g_type_check_instance_cast(ptr noundef %16, i64 noundef %12) #18
  tail call void @gtk_widget_set_visible(ptr noundef %17, i32 noundef %.0) #18
  %18 = load ptr, ptr getelementptr inbounds nuw (i8, ptr @darktable, i64 104), align 8, !tbaa !15
  %19 = getelementptr inbounds nuw i8, ptr %18, i64 32
  %20 = load ptr, ptr %19, align 8, !tbaa !108
  %21 = tail call ptr @g_type_check_instance_cast(ptr noundef %20, i64 noundef %12) #18
  tail call void @gtk_widget_set_visible(ptr noundef %21, i32 noundef %.0) #18
  %22 = load ptr, ptr getelementptr inbounds nuw (i8, ptr @darktable, i64 104), align 8, !tbaa !15
  %23 = getelementptr inbounds nuw i8, ptr %22, i64 24
  %24 = load ptr, ptr %23, align 8, !tbaa !121
  %25 = tail call ptr @g_type_check_instance_cast(ptr noundef %24, i64 noundef %12) #18
  tail call void @gtk_widget_set_visible(ptr noundef %25, i32 noundef %.0) #18
  ret void
}